target datalayout = "e-m:e-p270:32:32-p271:32:32-p272:64:64-i64:64-i128:128-f80:128-n8:16:32:64-S128"
target triple = "x86_64-pc-linux-gnu"

%struct.ldap_conv_info_t = type { i32, ptr, i32, ptr, ptr, i8, i32, i8, i32 }
%struct._asn1_ctx_t = type { i32, i32, i8, ptr, ptr, ptr, ptr, ptr, %struct.anon.2, %struct.anon.5, %struct.anon.6, ptr }
%struct.anon.2 = type { i32, i8, i8, i8, ptr, ptr, i32, i32, ptr, ptr, ptr, %union.anon }
%union.anon = type { %struct.anon.3 }
%struct.anon.3 = type { ptr }
%struct.anon.5 = type { ptr, ptr, ptr }
%struct.anon.6 = type { i32, i8, ptr, i32, i32, ptr, ptr, ptr, %union.anon.7 }
%union.anon.7 = type { %struct.anon.8 }
%struct.anon.8 = type { ptr }

@hf_ldap_extendedResponse_resultCode = internal global i32 0, align 4
@ldap_handle = internal global ptr null, align 8
@.str.514 = private unnamed_addr constant [4 x i8] c"tls\00", align 1

; Function Attrs: null_pointer_is_valid sspstrong uwtable
define internal i32 @dissect_ldap_ExtendedResponse_resultCode(i1 noundef zeroext %0, ptr noundef %1, i32 noundef %2, ptr noundef %3, ptr noundef %4, i32 noundef %5) #0 {
  %7 = alloca i8, align 1
  %8 = alloca ptr, align 8
  %9 = alloca i32, align 4
  %10 = alloca ptr, align 8
  %11 = alloca ptr, align 8
  %12 = alloca i32, align 4
  %13 = alloca i32, align 4
  %14 = alloca ptr, align 8
  %15 = zext i1 %0 to i8
  store i8 %15, ptr %7, align 1
  store ptr %1, ptr %8, align 8
  store i32 %2, ptr %9, align 4
  store ptr %3, ptr %10, align 8
  store ptr %4, ptr %11, align 8
  store i32 %5, ptr %12, align 4
  call void @llvm.lifetime.start.p0(i64 4, ptr %13) #16
  call void @llvm.lifetime.start.p0(i64 8, ptr %14) #16
  %16 = load ptr, ptr %10, align 8
  %17 = getelementptr inbounds nuw %struct._asn1_ctx_t, ptr %16, i32 0, i32 7
  %18 = load ptr, ptr %17, align 8
  store ptr %18, ptr %14, align 8
  %19 = load i8, ptr %7, align 1, !range !6, !noundef !7
  %20 = trunc i8 %19 to i1
  %21 = load ptr, ptr %10, align 8
  %22 = load ptr, ptr %11, align 8
  %23 = load ptr, ptr %8, align 8
  %24 = load i32, ptr %9, align 4
  %25 = load i32, ptr %12, align 4
  %26 = call i32 @dissect_ber_integer(i1 noundef zeroext %20, ptr noundef %21, ptr noundef %22, ptr noundef %23, i32 noundef %24, i32 noundef %25, ptr noundef %13)
  store i32 %26, ptr %9, align 4
  %27 = load ptr, ptr %14, align 8
  %28 = icmp ne ptr %27, null
  br i1 %28, label %29, label %50

29:                                               ; preds = %6
  %30 = load ptr, ptr %14, align 8
  %31 = getelementptr inbounds nuw %struct.ldap_conv_info_t, ptr %30, i32 0, i32 7
  %32 = load i8, ptr %31, align 8, !range !6, !noundef !7
  %33 = trunc i8 %32 to i1
  br i1 %33, label %34, label %50

34:                                               ; preds = %29
  %35 = load i32, ptr %12, align 4
  %36 = load i32, ptr @hf_ldap_extendedResponse_resultCode, align 4
  %37 = icmp eq i32 %35, %36
  br i1 %37, label %38, label %50

38:                                               ; preds = %34
  %39 = load i32, ptr %13, align 4
  %40 = icmp eq i32 %39, 0
  br i1 %40, label %41, label %50

41:                                               ; preds = %38
  %42 = call ptr @find_dissector(ptr noundef @.str.514)
  %43 = load ptr, ptr %10, align 8
  %44 = getelementptr inbounds nuw %struct._asn1_ctx_t, ptr %43, i32 0, i32 3
  %45 = load ptr, ptr %44, align 8
  %46 = load ptr, ptr @ldap_handle, align 8
  %47 = call i32 @ssl_starttls_ack(ptr noundef %42, ptr noundef %45, ptr noundef %46)
  %48 = load ptr, ptr %14, align 8
  %49 = getelementptr inbounds nuw %struct.ldap_conv_info_t, ptr %48, i32 0, i32 7
  store i8 0, ptr %49, align 8
  br label %50

50:                                               ; preds = %41, %38, %34, %29, %6
  %51 = load i32, ptr %9, align 4
  call void @llvm.lifetime.end.p0(i64 8, ptr %14) #16
  call void @llvm.lifetime.end.p0(i64 4, ptr %13) #16
  ret i32 %51
}