; Function Attrs: null_pointer_is_valid sspstrong uwtable
define internal i32 @dissect_ldap_ExtendedResponse_resultCode(i1 noundef zeroext %0, ptr noundef %1, i32 noundef %2, ptr noundef %3, ptr noundef %4, i32 noundef %5) #0 {
  %7 = alloca i32, align 4
  call void @llvm.lifetime.start.p0(i64 4, ptr nonnull %7) #14
  %8 = getelementptr inbounds nuw i8, ptr %3, i64 48
  %9 = load ptr, ptr %8, align 8
  %10 = call i32 @dissect_ber_integer(i1 noundef zeroext %0, ptr noundef %3, ptr noundef %4, ptr noundef %1, i32 noundef %2, i32 noundef %5, ptr noundef nonnull %7)
  %.not = icmp eq ptr %9, null
  br i1 %.not, label %26, label %11

11:                                               ; preds = %6
  %12 = getelementptr inbounds nuw i8, ptr %9, i64 48
  %13 = load i8, ptr %12, align 8, !range !6, !noundef !7
  %14 = trunc nuw i8 %13 to i1
  br i1 %14, label %15, label %26

15:                                               ; preds = %11
  %16 = load i32, ptr @hf_ldap_extendedResponse_resultCode, align 4
  %17 = icmp eq i32 %5, %16
  %18 = load i32, ptr %7, align 4
  %19 = icmp eq i32 %18, 0
  %or.cond = select i1 %17, i1 %19, i1 false
  br i1 %or.cond, label %20, label %26

20:                                               ; preds = %15
  %21 = call ptr @find_dissector(ptr noundef nonnull @.str.514)
  %22 = getelementptr inbounds nuw i8, ptr %3, i64 16
  %23 = load ptr, ptr %22, align 8
  %24 = load ptr, ptr @ldap_handle, align 8
  %25 = call i32 @ssl_starttls_ack(ptr noundef %21, ptr noundef %23, ptr noundef %24)
  store i8 0, ptr %12, align 8
  br label %26

26:                                               ; preds = %20, %15, %11, %6
  call void @llvm.lifetime.end.p0(i64 4, ptr nonnull %7) #14
  ret i32 %10
}